; Function Attrs: mustprogress uwtable
define internal void @_ZN12_GLOBAL__N_113tactic2solver11updt_paramsERK10params_ref(ptr noundef nonnull align 8 dereferenceable(225) %0, ptr noundef nonnull align 8 dereferenceable(8) %1) unnamed_addr #3 align 2 {
  tail call void @_ZN6solver11updt_paramsERK10params_ref(ptr noundef nonnull align 8 dereferenceable(96) %0, ptr noundef nonnull align 8 dereferenceable(8) %1)
  %3 = tail call noundef zeroext i1 @_ZNK10params_ref8get_boolEPKcb(ptr noundef nonnull align 8 dereferenceable(8) %1, ptr noundef nonnull @.str.6, i1 noundef zeroext false)
  %4 = getelementptr inbounds nuw i8, ptr %0, i64 202
  %5 = load i8, ptr %4, align 2, !tbaa !56, !range !77, !noundef !78
  %6 = zext i1 %3 to i8
  %7 = or i8 %5, %6
  store i8 %7, ptr %4, align 2, !tbaa !56
  ret void
}